; Function Attrs: mustprogress uwtable
define dso_local noundef nonnull align 8 dereferenceable(24) ptr @_ZN4i18n12phonenumbers11UnicodeText16UnsafeAppendUTF8EPKci(ptr noundef nonnull returned align 8 dereferenceable(24) %0, ptr noundef readonly captures(none) %1, i32 noundef %2) local_unnamed_addr #1 align 2 {
  %4 = getelementptr inbounds nuw i8, ptr %0, i64 8
  %5 = load i32, ptr %4, align 8, !tbaa !21
  %6 = add nsw i32 %5, %2
  %7 = getelementptr inbounds nuw i8, ptr %0, i64 12
  %8 = load i32, ptr %7, align 4, !tbaa !13
  %.not.i.i = icmp slt i32 %8, %6
  br i1 %.not.i.i, label %13, label %9

9:                                                ; preds = %3
  %10 = getelementptr inbounds nuw i8, ptr %0, i64 16
  %11 = load i8, ptr %10, align 8, !tbaa !17, !range !18, !noundef !19
  %12 = trunc nuw i8 %11 to i1
  br i1 %12, label %._ZN4i18n12phonenumbers11UnicodeText4Repr7reserveEi.exit_crit_edge.i, label %13

._ZN4i18n12phonenumbers11UnicodeText4Repr7reserveEi.exit_crit_edge.i: ; preds = %9
  %.pre.i = load ptr, ptr %0, align 8, !tbaa !20
  br label %_ZN4i18n12phonenumbers11UnicodeText4Repr6appendEPKci.exit

13:                                               ; preds = %9, %3
  %14 = mul nsw i32 %8, 3
  %15 = sdiv i32 %14, 2
  %16 = add nsw i32 %15, 20
  %.sroa.speculated.i.i = tail call i32 @llvm.smax.i32(i32 %6, i32 %16)
  store i32 %.sroa.speculated.i.i, ptr %7, align 4, !tbaa !13
  %17 = sext i32 %.sroa.speculated.i.i to i64
  %18 = tail call noalias noundef nonnull ptr @_Znam(i64 noundef %17) #25
  %19 = load ptr, ptr %0, align 8, !tbaa !20
  %.not4.i.i = icmp eq ptr %19, null
  br i1 %.not4.i.i, label %26, label %20

20:                                               ; preds = %13
  %21 = sext i32 %5 to i64
  tail call void @llvm.memcpy.p0.p0.i64(ptr nonnull align 1 %18, ptr nonnull align 1 %19, i64 %21, i1 false)
  %22 = getelementptr inbounds nuw i8, ptr %0, i64 16
  %23 = load i8, ptr %22, align 8, !tbaa !17, !range !18, !noundef !19
  %24 = trunc nuw i8 %23 to i1
  br i1 %24, label %25, label %26

25:                                               ; preds = %20
  tail call void @_ZdaPv(ptr noundef nonnull %19) #26
  %.pre4.pre.i = load i32, ptr %4, align 8, !tbaa !21
  br label %26

26:                                               ; preds = %25, %20, %13
  %.pre4.i = phi i32 [ %.pre4.pre.i, %25 ], [ %5, %20 ], [ %5, %13 ]
  store ptr %18, ptr %0, align 8, !tbaa !20
  %27 = getelementptr inbounds nuw i8, ptr %0, i64 16
  store i8 1, ptr %27, align 8, !tbaa !17
  br label %_ZN4i18n12phonenumbers11UnicodeText4Repr6appendEPKci.exit

_ZN4i18n12phonenumbers11UnicodeText4Repr6appendEPKci.exit: ; preds = %._ZN4i18n12phonenumbers11UnicodeText4Repr7reserveEi.exit_crit_edge.i, %26
  %28 = phi i32 [ %5, %._ZN4i18n12phonenumbers11UnicodeText4Repr7reserveEi.exit_crit_edge.i ], [ %.pre4.i, %26 ]
  %29 = phi ptr [ %.pre.i, %._ZN4i18n12phonenumbers11UnicodeText4Repr7reserveEi.exit_crit_edge.i ], [ %18, %26 ]
  %30 = sext i32 %28 to i64
  %31 = getelementptr inbounds i8, ptr %29, i64 %30
  %32 = sext i32 %2 to i64
  tail call void @llvm.memcpy.p0.p0.i64(ptr align 1 %31, ptr readonly align 1 %1, i64 %32, i1 false)
  %33 = load i32, ptr %4, align 8, !tbaa !21
  %34 = add nsw i32 %33, %2
  store i32 %34, ptr %4, align 8, !tbaa !21
  ret ptr %0
}